target datalayout = "e-m:e-p270:32:32-p271:32:32-p272:64:64-i64:64-i128:128-f80:128-n8:16:32:64-S128"
target triple = "x86_64-pc-linux-gnu"

%struct.Resampler = type { ptr, ptr, ptr, ptr, ptr, ptr, ptr, ptr }
%struct.SwrContext = type { ptr, i32, ptr, i32, i32, i32, %struct.AVChannelLayout, %struct.AVChannelLayout, %struct.AVChannelLayout, i32, i32, i32, float, float, float, float, float, i32, ptr, i32, %struct.AVChannelLayout, %struct.AVChannelLayout, %struct.AVChannelLayout, i32, i32, %struct.DitherContext, i32, i32, i32, i32, double, i32, double, double, i32, float, float, float, float, float, i64, i32, i32, i32, %struct.AudioData, %struct.AudioData, %struct.AudioData, %struct.AudioData, %struct.AudioData, %struct.AudioData, %struct.AudioData, %struct.AudioData, i32, i32, i32, i32, i64, i64, i32, double, ptr, ptr, ptr, ptr, ptr, [64 x [64 x double]], [64 x [64 x float]], ptr, ptr, ptr, ptr, [64 x [64 x i32]], [64 x [65 x i8]], ptr, ptr, ptr, ptr, ptr }
%struct.AVChannelLayout = type { i32, i32, %union.anon, ptr }
%union.anon = type { i64 }
%struct.DitherContext = type { i32, i32, float, float, i32, float, float, i32, [20 x float], [64 x [40 x float]], %struct.AudioData, %struct.AudioData, i32 }
%struct.AudioData = type { [64 x ptr], ptr, i32, i32, i32, i32, i32 }

; Function Attrs: nounwind uwtable
define i32 @swr_set_compensation(ptr noundef %0, i32 noundef %1, i32 noundef %2) #0 {
  %4 = alloca i32, align 4
  %5 = alloca ptr, align 8
  %6 = alloca i32, align 4
  %7 = alloca i32, align 4
  %8 = alloca i32, align 4
  %9 = alloca i32, align 4
  store ptr %0, ptr %5, align 8, !tbaa !4
  store i32 %1, ptr %6, align 4, !tbaa !31
  store i32 %2, ptr %7, align 4, !tbaa !31
  call void @llvm.lifetime.start.p0(i64 4, ptr %8) #9
  %10 = load ptr, ptr %5, align 8, !tbaa !4
  %11 = icmp ne ptr %10, null
  br i1 %11, label %12, label %15

12:                                               ; preds = %3
  %13 = load i32, ptr %7, align 4, !tbaa !31
  %14 = icmp slt i32 %13, 0
  br i1 %14, label %15, label %16

15:                                               ; preds = %12, %3
  store i32 -22, ptr %4, align 4
  store i32 1, ptr %9, align 4
  br label %60

16:                                               ; preds = %12
  %17 = load i32, ptr %7, align 4, !tbaa !31
  %18 = icmp ne i32 %17, 0
  br i1 %18, label %23, label %19

19:                                               ; preds = %16
  %20 = load i32, ptr %6, align 4, !tbaa !31
  %21 = icmp ne i32 %20, 0
  br i1 %21, label %22, label %23

22:                                               ; preds = %19
  store i32 -22, ptr %4, align 4
  store i32 1, ptr %9, align 4
  br label %60

23:                                               ; preds = %19, %16
  %24 = load ptr, ptr %5, align 8, !tbaa !4
  %25 = getelementptr inbounds nuw %struct.SwrContext, ptr %24, i32 0, i32 63
  %26 = load ptr, ptr %25, align 8, !tbaa !72
  %27 = icmp ne ptr %26, null
  br i1 %27, label %40, label %28

28:                                               ; preds = %23
  %29 = load ptr, ptr %5, align 8, !tbaa !4
  %30 = getelementptr inbounds nuw %struct.SwrContext, ptr %29, i32 0, i32 11
  %31 = load i32, ptr %30, align 8, !tbaa !64
  %32 = or i32 %31, 1
  store i32 %32, ptr %30, align 8, !tbaa !64
  %33 = load ptr, ptr %5, align 8, !tbaa !4
  %34 = call i32 @swr_init(ptr noundef %33) #11
  store i32 %34, ptr %8, align 4, !tbaa !31
  %35 = load i32, ptr %8, align 4, !tbaa !31
  %36 = icmp slt i32 %35, 0
  br i1 %36, label %37, label %39

37:                                               ; preds = %28
  %38 = load i32, ptr %8, align 4, !tbaa !31
  store i32 %38, ptr %4, align 4
  store i32 1, ptr %9, align 4
  br label %60

39:                                               ; preds = %28
  br label %40

40:                                               ; preds = %39, %23
  %41 = load ptr, ptr %5, align 8, !tbaa !4
  %42 = getelementptr inbounds nuw %struct.SwrContext, ptr %41, i32 0, i32 64
  %43 = load ptr, ptr %42, align 8, !tbaa !35
  %44 = getelementptr inbounds nuw %struct.Resampler, ptr %43, i32 0, i32 4
  %45 = load ptr, ptr %44, align 8, !tbaa !140
  %46 = icmp ne ptr %45, null
  br i1 %46, label %48, label %47

47:                                               ; preds = %40
  store i32 -22, ptr %4, align 4
  store i32 1, ptr %9, align 4
  br label %60

48:                                               ; preds = %40
  %49 = load ptr, ptr %5, align 8, !tbaa !4
  %50 = getelementptr inbounds nuw %struct.SwrContext, ptr %49, i32 0, i32 64
  %51 = load ptr, ptr %50, align 8, !tbaa !35
  %52 = getelementptr inbounds nuw %struct.Resampler, ptr %51, i32 0, i32 4
  %53 = load ptr, ptr %52, align 8, !tbaa !140
  %54 = load ptr, ptr %5, align 8, !tbaa !4
  %55 = getelementptr inbounds nuw %struct.SwrContext, ptr %54, i32 0, i32 63
  %56 = load ptr, ptr %55, align 8, !tbaa !72
  %57 = load i32, ptr %6, align 4, !tbaa !31
  %58 = load i32, ptr %7, align 4, !tbaa !31
  %59 = call i32 %53(ptr noundef %56, i32 noundef %57, i32 noundef %58)
  store i32 %59, ptr %4, align 4
  store i32 1, ptr %9, align 4
  br label %60

60:                                               ; preds = %48, %47, %37, %22, %15
  call void @llvm.lifetime.end.p0(i64 4, ptr %8) #9
  %61 = load i32, ptr %4, align 4
  ret i32 %61
}