; Function Attrs: nounwind uwtable
define i32 @swr_set_compensation(ptr noundef %0, i32 noundef %1, i32 noundef %2) local_unnamed_addr #1 {
  %4 = icmp eq ptr %0, null
  %5 = icmp slt i32 %2, 0
  %or.cond = or i1 %4, %5
  br i1 %or.cond, label %26, label %6

6:                                                ; preds = %3
  %7 = icmp eq i32 %2, 0
  %8 = icmp ne i32 %1, 0
  %or.cond3 = and i1 %8, %7
  br i1 %or.cond3, label %26, label %9

9:                                                ; preds = %6
  %10 = getelementptr inbounds nuw i8, ptr %0, i64 16216
  %11 = load ptr, ptr %10, align 8, !tbaa !65
  %.not = icmp eq ptr %11, null
  br i1 %.not, label %12, label %18

12:                                               ; preds = %9
  %13 = getelementptr inbounds nuw i8, ptr %0, i64 120
  %14 = load i32, ptr %13, align 8, !tbaa !57
  %15 = or i32 %14, 1
  store i32 %15, ptr %13, align 8, !tbaa !57
  %16 = tail call i32 @swr_init(ptr noundef nonnull %0) #14
  %17 = icmp slt i32 %16, 0
  br i1 %17, label %26, label %18

18:                                               ; preds = %12, %9
  %19 = getelementptr inbounds nuw i8, ptr %0, i64 16224
  %20 = load ptr, ptr %19, align 8, !tbaa !27
  %21 = getelementptr inbounds nuw i8, ptr %20, i64 32
  %22 = load ptr, ptr %21, align 8, !tbaa !128
  %.not21 = icmp eq ptr %22, null
  br i1 %.not21, label %26, label %23

23:                                               ; preds = %18
  %24 = load ptr, ptr %10, align 8, !tbaa !65
  %25 = tail call i32 %22(ptr noundef %24, i32 noundef %1, i32 noundef %2) #12
  br label %26

26:                                               ; preds = %18, %12, %6, %3, %23
  %.0 = phi i32 [ %25, %23 ], [ -22, %3 ], [ -22, %6 ], [ %16, %12 ], [ -22, %18 ]
  ret i32 %.0
}